target datalayout = "e-m:e-p270:32:32-p271:32:32-p272:64:64-i64:64-i128:128-f80:128-n8:16:32:64-S128"
target triple = "x86_64-pc-linux-gnu"

%struct.png_time_struct = type { i16, i8, i8, i8, i8, i8 }

@.str.6 = private unnamed_addr constant [7 x i8] c" +0000\00", align 1

; Function Attrs: nounwind uwtable
define hidden i32 @png_convert_to_rfc1123_buffer(ptr noundef %0, ptr noundef %1) #0 {
  %3 = alloca i32, align 4
  %4 = alloca ptr, align 8
  %5 = alloca ptr, align 8
  %6 = alloca i64, align 8
  %7 = alloca [5 x i8], align 1
  store ptr %0, ptr %4, align 8
  store ptr %1, ptr %5, align 8
  %8 = load ptr, ptr %4, align 8
  %9 = icmp eq ptr %8, null
  br i1 %9, label %10, label %11

10:                                               ; preds = %2
  store i32 0, ptr %3, align 4
  br label %174

11:                                               ; preds = %2
  %12 = load ptr, ptr %5, align 8
  %13 = getelementptr inbounds %struct.png_time_struct, ptr %12, i32 0, i32 0
  %14 = load i16, ptr %13, align 2
  %15 = zext i16 %14 to i32
  %16 = icmp sgt i32 %15, 9999
  br i1 %16, label %59, label %17

17:                                               ; preds = %11
  %18 = load ptr, ptr %5, align 8
  %19 = getelementptr inbounds %struct.png_time_struct, ptr %18, i32 0, i32 1
  %20 = load i8, ptr %19, align 2
  %21 = zext i8 %20 to i32
  %22 = icmp eq i32 %21, 0
  br i1 %22, label %59, label %23

23:                                               ; preds = %17
  %24 = load ptr, ptr %5, align 8
  %25 = getelementptr inbounds %struct.png_time_struct, ptr %24, i32 0, i32 1
  %26 = load i8, ptr %25, align 2
  %27 = zext i8 %26 to i32
  %28 = icmp sgt i32 %27, 12
  br i1 %28, label %59, label %29

29:                                               ; preds = %23
  %30 = load ptr, ptr %5, align 8
  %31 = getelementptr inbounds %struct.png_time_struct, ptr %30, i32 0, i32 2
  %32 = load i8, ptr %31, align 1
  %33 = zext i8 %32 to i32
  %34 = icmp eq i32 %33, 0
  br i1 %34, label %59, label %35

35:                                               ; preds = %29
  %36 = load ptr, ptr %5, align 8
  %37 = getelementptr inbounds %struct.png_time_struct, ptr %36, i32 0, i32 2
  %38 = load i8, ptr %37, align 1
  %39 = zext i8 %38 to i32
  %40 = icmp sgt i32 %39, 31
  br i1 %40, label %59, label %41

41:                                               ; preds = %35
  %42 = load ptr, ptr %5, align 8
  %43 = getelementptr inbounds %struct.png_time_struct, ptr %42, i32 0, i32 3
  %44 = load i8, ptr %43, align 2
  %45 = zext i8 %44 to i32
  %46 = icmp sgt i32 %45, 23
  br i1 %46, label %59, label %47

47:                                               ; preds = %41
  %48 = load ptr, ptr %5, align 8
  %49 = getelementptr inbounds %struct.png_time_struct, ptr %48, i32 0, i32 4
  %50 = load i8, ptr %49, align 1
  %51 = zext i8 %50 to i32
  %52 = icmp sgt i32 %51, 59
  br i1 %52, label %59, label %53

53:                                               ; preds = %47
  %54 = load ptr, ptr %5, align 8
  %55 = getelementptr inbounds %struct.png_time_struct, ptr %54, i32 0, i32 5
  %56 = load i8, ptr %55, align 2
  %57 = zext i8 %56 to i32
  %58 = icmp sgt i32 %57, 60
  br i1 %58, label %59, label %60

59:                                               ; preds = %53, %47, %41, %35, %29, %23, %17, %11
  store i32 0, ptr %3, align 4
  br label %174

60:                                               ; preds = %53
  store i64 0, ptr %6, align 8
  call void @llvm.memset.p0.i64(ptr align 1 %7, i8 0, i64 5, i1 false)
  %61 = load ptr, ptr %4, align 8
  %62 = load i64, ptr %6, align 8
  %63 = getelementptr inbounds [5 x i8], ptr %7, i64 0, i64 0
  %64 = getelementptr inbounds [5 x i8], ptr %7, i64 0, i64 0
  %65 = getelementptr inbounds i8, ptr %64, i64 5
  %66 = load ptr, ptr %5, align 8
  %67 = getelementptr inbounds %struct.png_time_struct, ptr %66, i32 0, i32 2
  %68 = load i8, ptr %67, align 1
  %69 = zext i8 %68 to i32
  %70 = zext i32 %69 to i64
  %71 = call ptr @png_format_number(ptr noundef %63, ptr noundef %65, i32 noundef 1, i64 noundef %70)
  %72 = call i64 @png_safecat(ptr noundef %61, i64 noundef 29, i64 noundef %62, ptr noundef %71)
  store i64 %72, ptr %6, align 8
  %73 = load i64, ptr %6, align 8
  %74 = icmp ult i64 %73, 28
  br i1 %74, label %75, label %80

75:                                               ; preds = %60
  %76 = load ptr, ptr %4, align 8
  %77 = load i64, ptr %6, align 8
  %78 = add i64 %77, 1
  store i64 %78, ptr %6, align 8
  %79 = getelementptr inbounds i8, ptr %76, i64 %77
  store i8 32, ptr %79, align 1
  br label %80

80:                                               ; preds = %75, %60
  %81 = load ptr, ptr %4, align 8
  %82 = load i64, ptr %6, align 8
  %83 = load ptr, ptr %5, align 8
  %84 = getelementptr inbounds %struct.png_time_struct, ptr %83, i32 0, i32 1
  %85 = load i8, ptr %84, align 2
  %86 = zext i8 %85 to i32
  %87 = sub nsw i32 %86, 1
  %88 = sext i32 %87 to i64
  %89 = getelementptr inbounds [12 x [4 x i8]], ptr @png_convert_to_rfc1123_buffer.short_months, i64 0, i64 %88
  %90 = getelementptr inbounds [4 x i8], ptr %89, i64 0, i64 0
  %91 = call i64 @png_safecat(ptr noundef %81, i64 noundef 29, i64 noundef %82, ptr noundef %90)
  store i64 %91, ptr %6, align 8
  %92 = load i64, ptr %6, align 8
  %93 = icmp ult i64 %92, 28
  br i1 %93, label %94, label %99

94:                                               ; preds = %80
  %95 = load ptr, ptr %4, align 8
  %96 = load i64, ptr %6, align 8
  %97 = add i64 %96, 1
  store i64 %97, ptr %6, align 8
  %98 = getelementptr inbounds i8, ptr %95, i64 %96
  store i8 32, ptr %98, align 1
  br label %99

99:                                               ; preds = %94, %80
  %100 = load ptr, ptr %4, align 8
  %101 = load i64, ptr %6, align 8
  %102 = getelementptr inbounds [5 x i8], ptr %7, i64 0, i64 0
  %103 = getelementptr inbounds [5 x i8], ptr %7, i64 0, i64 0
  %104 = getelementptr inbounds i8, ptr %103, i64 5
  %105 = load ptr, ptr %5, align 8
  %106 = getelementptr inbounds %struct.png_time_struct, ptr %105, i32 0, i32 0
  %107 = load i16, ptr %106, align 2
  %108 = zext i16 %107 to i64
  %109 = call ptr @png_format_number(ptr noundef %102, ptr noundef %104, i32 noundef 1, i64 noundef %108)
  %110 = call i64 @png_safecat(ptr noundef %100, i64 noundef 29, i64 noundef %101, ptr noundef %109)
  store i64 %110, ptr %6, align 8
  %111 = load i64, ptr %6, align 8
  %112 = icmp ult i64 %111, 28
  br i1 %112, label %113, label %118

113:                                              ; preds = %99
  %114 = load ptr, ptr %4, align 8
  %115 = load i64, ptr %6, align 8
  %116 = add i64 %115, 1
  store i64 %116, ptr %6, align 8
  %117 = getelementptr inbounds i8, ptr %114, i64 %115
  store i8 32, ptr %117, align 1
  br label %118

118:                                              ; preds = %113, %99
  %119 = load ptr, ptr %4, align 8
  %120 = load i64, ptr %6, align 8
  %121 = getelementptr inbounds [5 x i8], ptr %7, i64 0, i64 0
  %122 = getelementptr inbounds [5 x i8], ptr %7, i64 0, i64 0
  %123 = getelementptr inbounds i8, ptr %122, i64 5
  %124 = load ptr, ptr %5, align 8
  %125 = getelementptr inbounds %struct.png_time_struct, ptr %124, i32 0, i32 3
  %126 = load i8, ptr %125, align 2
  %127 = zext i8 %126 to i32
  %128 = zext i32 %127 to i64
  %129 = call ptr @png_format_number(ptr noundef %121, ptr noundef %123, i32 noundef 2, i64 noundef %128)
  %130 = call i64 @png_safecat(ptr noundef %119, i64 noundef 29, i64 noundef %120, ptr noundef %129)
  store i64 %130, ptr %6, align 8
  %131 = load i64, ptr %6, align 8
  %132 = icmp ult i64 %131, 28
  br i1 %132, label %133, label %138

133:                                              ; preds = %118
  %134 = load ptr, ptr %4, align 8
  %135 = load i64, ptr %6, align 8
  %136 = add i64 %135, 1
  store i64 %136, ptr %6, align 8
  %137 = getelementptr inbounds i8, ptr %134, i64 %135
  store i8 58, ptr %137, align 1
  br label %138

138:                                              ; preds = %133, %118
  %139 = load ptr, ptr %4, align 8
  %140 = load i64, ptr %6, align 8
  %141 = getelementptr inbounds [5 x i8], ptr %7, i64 0, i64 0
  %142 = getelementptr inbounds [5 x i8], ptr %7, i64 0, i64 0
  %143 = getelementptr inbounds i8, ptr %142, i64 5
  %144 = load ptr, ptr %5, align 8
  %145 = getelementptr inbounds %struct.png_time_struct, ptr %144, i32 0, i32 4
  %146 = load i8, ptr %145, align 1
  %147 = zext i8 %146 to i32
  %148 = zext i32 %147 to i64
  %149 = call ptr @png_format_number(ptr noundef %141, ptr noundef %143, i32 noundef 2, i64 noundef %148)
  %150 = call i64 @png_safecat(ptr noundef %139, i64 noundef 29, i64 noundef %140, ptr noundef %149)
  store i64 %150, ptr %6, align 8
  %151 = load i64, ptr %6, align 8
  %152 = icmp ult i64 %151, 28
  br i1 %152, label %153, label %158

153:                                              ; preds = %138
  %154 = load ptr, ptr %4, align 8
  %155 = load i64, ptr %6, align 8
  %156 = add i64 %155, 1
  store i64 %156, ptr %6, align 8
  %157 = getelementptr inbounds i8, ptr %154, i64 %155
  store i8 58, ptr %157, align 1
  br label %158

158:                                              ; preds = %153, %138
  %159 = load ptr, ptr %4, align 8
  %160 = load i64, ptr %6, align 8
  %161 = getelementptr inbounds [5 x i8], ptr %7, i64 0, i64 0
  %162 = getelementptr inbounds [5 x i8], ptr %7, i64 0, i64 0
  %163 = getelementptr inbounds i8, ptr %162, i64 5
  %164 = load ptr, ptr %5, align 8
  %165 = getelementptr inbounds %struct.png_time_struct, ptr %164, i32 0, i32 5
  %166 = load i8, ptr %165, align 2
  %167 = zext i8 %166 to i32
  %168 = zext i32 %167 to i64
  %169 = call ptr @png_format_number(ptr noundef %161, ptr noundef %163, i32 noundef 2, i64 noundef %168)
  %170 = call i64 @png_safecat(ptr noundef %159, i64 noundef 29, i64 noundef %160, ptr noundef %169)
  store i64 %170, ptr %6, align 8
  %171 = load ptr, ptr %4, align 8
  %172 = load i64, ptr %6, align 8
  %173 = call i64 @png_safecat(ptr noundef %171, i64 noundef 29, i64 noundef %172, ptr noundef @.str.6)
  store i64 %173, ptr %6, align 8
  store i32 1, ptr %3, align 4
  br label %174

174:                                              ; preds = %158, %59, %10
  %175 = load i32, ptr %3, align 4
  ret i32 %175
}